; Function Attrs: nounwind uwtable
define noundef i32 @H5SM__list_free(ptr noundef %0) local_unnamed_addr #0 {
  %2 = load i8, ptr @H5SM_init_g, align 1, !tbaa !9, !range !11, !noundef !12
  %3 = trunc nuw i8 %2 to i1
  %4 = load i8, ptr @H5_libterm_g, align 1, !range !11
  %5 = trunc nuw i8 %4 to i1
  %6 = xor i1 %5, true
  %7 = select i1 %3, i1 true, i1 %6
  br i1 %7, label %8, label %13, !prof !13

8:                                                ; preds = %1
  %9 = getelementptr inbounds nuw i8, ptr %0, i64 256
  %10 = load ptr, ptr %9, align 8, !tbaa !86
  %11 = tail call ptr @H5FL_arr_free(ptr noundef nonnull @H5_H5SM_sohm_t_arr_free_list, ptr noundef %10) #11
  store ptr %11, ptr %9, align 8, !tbaa !86
  %12 = tail call ptr @H5FL_reg_free(ptr noundef nonnull @H5_H5SM_list_t_reg_free_list, ptr noundef %0) #11
  br label %13

13:                                               ; preds = %8, %1
  ret i32 0
}